; Function Attrs: mustprogress nofree norecurse nosync nounwind willreturn memory(read, inaccessiblemem: none) uwtable
define hidden noundef nonnull align 8 dereferenceable(32) ptr @_ZNK2dd11pdd_manager6offsetEj(ptr noundef nonnull readonly align 8 captures(none) dereferenceable(952) %0, i32 noundef %1) local_unnamed_addr #15 align 2 {
  %3 = load ptr, ptr %0, align 8, !tbaa !91
  br label %_ZNK2dd11pdd_manager6is_valEj.exit.thread3

_ZNK2dd11pdd_manager6is_valEj.exit.thread3:       ; preds = %_ZNK2dd11pdd_manager6is_valEj.exit.thread3.backedge, %2
  %.0 = phi i32 [ %1, %2 ], [ %.0.be, %_ZNK2dd11pdd_manager6is_valEj.exit.thread3.backedge ]
  %4 = zext i32 %.0 to i64
  %5 = getelementptr inbounds nuw %"struct.dd::pdd_manager::node", ptr %3, i64 %4
  %6 = getelementptr inbounds nuw i8, ptr %5, i64 8
  %7 = load i32, ptr %6, align 4, !tbaa !92
  %8 = icmp eq i32 %7, 0
  br i1 %8, label %9, label %._ZNK2dd11pdd_manager6is_valEj.exit.thread3_crit_edge

._ZNK2dd11pdd_manager6is_valEj.exit.thread3_crit_edge: ; preds = %_ZNK2dd11pdd_manager6is_valEj.exit.thread3
  %.phi.trans.insert = getelementptr inbounds nuw %"struct.dd::pdd_manager::node", ptr %3, i64 %4, i32 1
  %.pre = load i32, ptr %.phi.trans.insert, align 4, !tbaa !94
  br label %_ZNK2dd11pdd_manager6is_valEj.exit.thread3.backedge

_ZNK2dd11pdd_manager6is_valEj.exit.thread3.backedge: ; preds = %._ZNK2dd11pdd_manager6is_valEj.exit.thread3_crit_edge, %_ZNK2dd11pdd_manager6is_valEj.exit
  %.0.be = phi i32 [ %.pre, %._ZNK2dd11pdd_manager6is_valEj.exit.thread3_crit_edge ], [ 0, %_ZNK2dd11pdd_manager6is_valEj.exit ]
  br label %_ZNK2dd11pdd_manager6is_valEj.exit.thread3, !llvm.loop !541

9:                                                ; preds = %_ZNK2dd11pdd_manager6is_valEj.exit.thread3
  %10 = getelementptr inbounds nuw i8, ptr %5, i64 4
  %11 = load i32, ptr %10, align 4, !tbaa !94
  %.not.i.i = icmp eq i32 %11, 0
  br i1 %.not.i.i, label %_ZNK2dd11pdd_manager6is_valEj.exit, label %_ZNK2dd11pdd_manager6is_valEj.exit.thread

_ZNK2dd11pdd_manager6is_valEj.exit:               ; preds = %9
  %12 = getelementptr inbounds nuw i8, ptr %5, i64 12
  %13 = load i32, ptr %12, align 4, !tbaa !98
  %14 = icmp eq i32 %13, 0
  br i1 %14, label %_ZNK2dd11pdd_manager6is_valEj.exit.thread, label %_ZNK2dd11pdd_manager6is_valEj.exit.thread3.backedge

_ZNK2dd11pdd_manager6is_valEj.exit.thread:        ; preds = %9, %_ZNK2dd11pdd_manager6is_valEj.exit
  %15 = getelementptr inbounds nuw i8, ptr %0, i64 8
  %16 = load ptr, ptr %15, align 8, !tbaa !95
  %17 = zext i32 %11 to i64
  %18 = getelementptr inbounds nuw %class.rational, ptr %16, i64 %17
  ret ptr %18
}